target datalayout = "e-m:e-p270:32:32-p271:32:32-p272:64:64-i64:64-i128:128-f80:128-n8:16:32:64-S128"
target triple = "x86_64-pc-linux-gnu"

%"struct.faiss::InvertedLists.base" = type <{ ptr, i64, i64, i8 }>
%"struct.faiss::ReadOnlyInvertedLists.base" = type { %"struct.faiss::InvertedLists.base" }
%"struct.faiss::SliceInvertedLists" = type { %"struct.faiss::ReadOnlyInvertedLists.base", ptr, i64, i64 }

; Function Attrs: mustprogress uwtable
define noundef ptr @_ZNK5faiss18SliceInvertedLists15get_single_codeEmm(ptr noundef nonnull align 8 dereferenceable(56) %0, i64 noundef %1, i64 noundef %2) unnamed_addr #2 align 2 {
  %4 = alloca ptr, align 8
  %5 = alloca i64, align 8
  %6 = alloca i64, align 8
  store ptr %0, ptr %4, align 8, !tbaa !43
  store i64 %1, ptr %5, align 8, !tbaa !11
  store i64 %2, ptr %6, align 8, !tbaa !11
  %7 = load ptr, ptr %4, align 8
  %8 = getelementptr inbounds nuw %"struct.faiss::SliceInvertedLists", ptr %7, i32 0, i32 1
  %9 = load ptr, ptr %8, align 8, !tbaa !45
  %10 = load i64, ptr %5, align 8, !tbaa !11
  %11 = call noundef i64 @_ZN5faiss12_GLOBAL__N_117translate_list_noEPKNS_18SliceInvertedListsEl(ptr noundef %7, i64 noundef %10)
  %12 = load i64, ptr %6, align 8, !tbaa !11
  %13 = load ptr, ptr %9, align 8, !tbaa !17
  %14 = getelementptr inbounds ptr, ptr %13, i64 8
  %15 = load ptr, ptr %14, align 8
  %16 = call noundef ptr %15(ptr noundef nonnull align 8 dereferenceable(25) %9, i64 noundef %11, i64 noundef %12)
  ret ptr %16
}