; Function Attrs: mustprogress uwtable
define noundef ptr @_ZNK5faiss18SliceInvertedLists15get_single_codeEmm(ptr noundef nonnull readonly align 8 captures(none) dereferenceable(56) %0, i64 noundef %1, i64 noundef %2) unnamed_addr #2 align 2 {
  %4 = getelementptr inbounds nuw i8, ptr %0, i64 32
  %5 = load ptr, ptr %4, align 8, !tbaa !65
  %6 = getelementptr inbounds nuw i8, ptr %0, i64 8
  %.val = load i64, ptr %6, align 8
  %7 = getelementptr inbounds nuw i8, ptr %0, i64 40
  %.val2 = load i64, ptr %7, align 8
  %8 = tail call fastcc noundef i64 @_ZN5faiss12_GLOBAL__N_117translate_list_noEPKNS_18SliceInvertedListsEl(i64 %.val, i64 %.val2, i64 noundef %1)
  %9 = load ptr, ptr %5, align 8, !tbaa !4
  %10 = getelementptr inbounds nuw i8, ptr %9, i64 64
  %11 = load ptr, ptr %10, align 8
  %12 = tail call noundef ptr %11(ptr noundef nonnull align 8 dereferenceable(25) %5, i64 noundef %8, i64 noundef %2)
  ret ptr %12
}